target datalayout = "e-m:e-p270:32:32-p271:32:32-p272:64:64-i64:64-i128:128-f80:128-n8:16:32:64-S128"
target triple = "x86_64-pc-linux-gnu"

%struct._zval_struct = type { %union._zend_value, %union.anon.3, %union.anon.6 }
%union._zend_value = type { i64 }
%union.anon.3 = type { i32 }
%union.anon.6 = type { i32 }
%struct._php_stream_ops = type { ptr, ptr, ptr, ptr, ptr, ptr, ptr, ptr, ptr }
%struct._php_stream = type { ptr, ptr, %struct._php_stream_filter_chain, %struct._php_stream_filter_chain, ptr, ptr, %struct._zval_struct, i16, [16 x i8], i32, ptr, ptr, ptr, ptr, i64, ptr, i64, i64, i64, i64, ptr }
%struct._php_stream_filter_chain = type { ptr, ptr, ptr }

@.str.2 = private unnamed_addr constant [32 x i8] c"Stream does not support seeking\00", align 1

; Function Attrs: nounwind uwtable
define i32 @_php_stream_flush(ptr noundef %0, i32 noundef %1) #0 {
  %3 = alloca ptr, align 8
  %4 = alloca i32, align 4
  %5 = alloca i32, align 4
  store ptr %0, ptr %3, align 8
  store i32 %1, ptr %4, align 4
  store i32 0, ptr %5, align 4
  %6 = load ptr, ptr %3, align 8
  %7 = getelementptr inbounds %struct._php_stream, ptr %6, i32 0, i32 3
  %8 = getelementptr inbounds %struct._php_stream_filter_chain, ptr %7, i32 0, i32 0
  %9 = load ptr, ptr %8, align 8
  %10 = icmp ne ptr %9, null
  br i1 %10, label %11, label %17

11:                                               ; preds = %2
  %12 = load ptr, ptr %3, align 8
  %13 = load i32, ptr %4, align 4
  %14 = icmp ne i32 %13, 0
  %15 = select i1 %14, i32 2, i32 1
  %16 = call i64 @_php_stream_write_filtered(ptr noundef %12, ptr noundef null, i64 noundef 0, i32 noundef %15)
  br label %17

17:                                               ; preds = %11, %2
  %18 = load ptr, ptr %3, align 8
  %19 = getelementptr inbounds %struct._php_stream, ptr %18, i32 0, i32 9
  %20 = load i32, ptr %19, align 4
  %21 = and i32 %20, 2147483647
  store i32 %21, ptr %19, align 4
  %22 = load ptr, ptr %3, align 8
  %23 = getelementptr inbounds %struct._php_stream, ptr %22, i32 0, i32 0
  %24 = load ptr, ptr %23, align 8
  %25 = getelementptr inbounds %struct._php_stream_ops, ptr %24, i32 0, i32 3
  %26 = load ptr, ptr %25, align 8
  %27 = icmp ne ptr %26, null
  br i1 %27, label %28, label %36

28:                                               ; preds = %17
  %29 = load ptr, ptr %3, align 8
  %30 = getelementptr inbounds %struct._php_stream, ptr %29, i32 0, i32 0
  %31 = load ptr, ptr %30, align 8
  %32 = getelementptr inbounds %struct._php_stream_ops, ptr %31, i32 0, i32 3
  %33 = load ptr, ptr %32, align 8
  %34 = load ptr, ptr %3, align 8
  %35 = call i32 %33(ptr noundef %34)
  store i32 %35, ptr %5, align 4
  br label %36

36:                                               ; preds = %28, %17
  %37 = load i32, ptr %5, align 4
  ret i32 %37
}

; Function Attrs: nounwind uwtable
define i32 @_php_stream_seek(ptr noundef %0, i64 noundef %1, i32 noundef %2) #0 {
  %4 = alloca i32, align 4
  %5 = alloca ptr, align 8
  %6 = alloca i64, align 8
  %7 = alloca i32, align 4
  %8 = alloca i32, align 4
  %9 = alloca [1024 x i8], align 16
  %10 = alloca i64, align 8
  store ptr %0, ptr %5, align 8
  store i64 %1, ptr %6, align 8
  store i32 %2, ptr %7, align 4
  %11 = load ptr, ptr %5, align 8
  %12 = getelementptr inbounds %struct._php_stream, ptr %11, i32 0, i32 7
  %13 = load i16, ptr %12, align 8
  %14 = lshr i16 %13, 5
  %15 = and i16 %14, 3
  %16 = zext i16 %15 to i32
  %17 = icmp eq i32 %16, 2
  br i1 %17, label %18, label %41

18:                                               ; preds = %3
  %19 = load ptr, ptr %5, align 8
  %20 = getelementptr inbounds %struct._php_stream, ptr %19, i32 0, i32 7
  %21 = load i16, ptr %20, align 8
  %22 = lshr i16 %21, 8
  %23 = and i16 %22, 1
  %24 = icmp ne i16 %23, 0
  br i1 %24, label %40, label %25

25:                                               ; preds = %18
  %26 = load ptr, ptr %5, align 8
  %27 = getelementptr inbounds %struct._php_stream, ptr %26, i32 0, i32 7
  %28 = load i16, ptr %27, align 8
  %29 = and i16 %28, -257
  %30 = or i16 %29, 256
  store i16 %30, ptr %27, align 8
  %31 = load ptr, ptr %5, align 8
  %32 = getelementptr inbounds %struct._php_stream, ptr %31, i32 0, i32 11
  %33 = load ptr, ptr %32, align 8
  %34 = call i32 @fflush(ptr noundef %33)
  %35 = load ptr, ptr %5, align 8
  %36 = getelementptr inbounds %struct._php_stream, ptr %35, i32 0, i32 7
  %37 = load i16, ptr %36, align 8
  %38 = and i16 %37, -257
  %39 = or i16 %38, 0
  store i16 %39, ptr %36, align 8
  br label %40

40:                                               ; preds = %25, %18
  br label %41

41:                                               ; preds = %40, %3
  %42 = load ptr, ptr %5, align 8
  %43 = getelementptr inbounds %struct._php_stream, ptr %42, i32 0, i32 9
  %44 = load i32, ptr %43, align 4
  %45 = and i32 %44, 2
  %46 = icmp eq i32 %45, 0
  br i1 %46, label %47, label %119

47:                                               ; preds = %41
  %48 = load i32, ptr %7, align 4
  switch i32 %48, label %118 [
    i32 1, label %49
    i32 0, label %79
  ]

49:                                               ; preds = %47
  %50 = load i64, ptr %6, align 8
  %51 = icmp sgt i64 %50, 0
  br i1 %51, label %52, label %78

52:                                               ; preds = %49
  %53 = load i64, ptr %6, align 8
  %54 = load ptr, ptr %5, align 8
  %55 = getelementptr inbounds %struct._php_stream, ptr %54, i32 0, i32 18
  %56 = load i64, ptr %55, align 8
  %57 = load ptr, ptr %5, align 8
  %58 = getelementptr inbounds %struct._php_stream, ptr %57, i32 0, i32 17
  %59 = load i64, ptr %58, align 8
  %60 = sub nsw i64 %56, %59
  %61 = icmp sle i64 %53, %60
  br i1 %61, label %62, label %78

62:                                               ; preds = %52
  %63 = load i64, ptr %6, align 8
  %64 = load ptr, ptr %5, align 8
  %65 = getelementptr inbounds %struct._php_stream, ptr %64, i32 0, i32 17
  %66 = load i64, ptr %65, align 8
  %67 = add nsw i64 %66, %63
  store i64 %67, ptr %65, align 8
  %68 = load i64, ptr %6, align 8
  %69 = load ptr, ptr %5, align 8
  %70 = getelementptr inbounds %struct._php_stream, ptr %69, i32 0, i32 14
  %71 = load i64, ptr %70, align 8
  %72 = add nsw i64 %71, %68
  store i64 %72, ptr %70, align 8
  %73 = load ptr, ptr %5, align 8
  %74 = getelementptr inbounds %struct._php_stream, ptr %73, i32 0, i32 7
  %75 = load i16, ptr %74, align 8
  %76 = and i16 %75, -9
  %77 = or i16 %76, 0
  store i16 %77, ptr %74, align 8
  store i32 0, ptr %4, align 4
  br label %219

78:                                               ; preds = %52, %49
  br label %118

79:                                               ; preds = %47
  %80 = load i64, ptr %6, align 8
  %81 = load ptr, ptr %5, align 8
  %82 = getelementptr inbounds %struct._php_stream, ptr %81, i32 0, i32 14
  %83 = load i64, ptr %82, align 8
  %84 = icmp sgt i64 %80, %83
  br i1 %84, label %85, label %117

85:                                               ; preds = %79
  %86 = load i64, ptr %6, align 8
  %87 = load ptr, ptr %5, align 8
  %88 = getelementptr inbounds %struct._php_stream, ptr %87, i32 0, i32 14
  %89 = load i64, ptr %88, align 8
  %90 = load ptr, ptr %5, align 8
  %91 = getelementptr inbounds %struct._php_stream, ptr %90, i32 0, i32 18
  %92 = load i64, ptr %91, align 8
  %93 = add nsw i64 %89, %92
  %94 = load ptr, ptr %5, align 8
  %95 = getelementptr inbounds %struct._php_stream, ptr %94, i32 0, i32 17
  %96 = load i64, ptr %95, align 8
  %97 = sub nsw i64 %93, %96
  %98 = icmp sle i64 %86, %97
  br i1 %98, label %99, label %117

99:                                               ; preds = %85
  %100 = load i64, ptr %6, align 8
  %101 = load ptr, ptr %5, align 8
  %102 = getelementptr inbounds %struct._php_stream, ptr %101, i32 0, i32 14
  %103 = load i64, ptr %102, align 8
  %104 = sub nsw i64 %100, %103
  %105 = load ptr, ptr %5, align 8
  %106 = getelementptr inbounds %struct._php_stream, ptr %105, i32 0, i32 17
  %107 = load i64, ptr %106, align 8
  %108 = add nsw i64 %107, %104
  store i64 %108, ptr %106, align 8
  %109 = load i64, ptr %6, align 8
  %110 = load ptr, ptr %5, align 8
  %111 = getelementptr inbounds %struct._php_stream, ptr %110, i32 0, i32 14
  store i64 %109, ptr %111, align 8
  %112 = load ptr, ptr %5, align 8
  %113 = getelementptr inbounds %struct._php_stream, ptr %112, i32 0, i32 7
  %114 = load i16, ptr %113, align 8
  %115 = and i16 %114, -9
  %116 = or i16 %115, 0
  store i16 %116, ptr %113, align 8
  store i32 0, ptr %4, align 4
  br label %219

117:                                              ; preds = %85, %79
  br label %118

118:                                              ; preds = %117, %78, %47
  br label %119

119:                                              ; preds = %118, %41
  %120 = load ptr, ptr %5, align 8
  %121 = getelementptr inbounds %struct._php_stream, ptr %120, i32 0, i32 0
  %122 = load ptr, ptr %121, align 8
  %123 = getelementptr inbounds %struct._php_stream_ops, ptr %122, i32 0, i32 5
  %124 = load ptr, ptr %123, align 8
  %125 = icmp ne ptr %124, null
  br i1 %125, label %126, label %185

126:                                              ; preds = %119
  %127 = load ptr, ptr %5, align 8
  %128 = getelementptr inbounds %struct._php_stream, ptr %127, i32 0, i32 9
  %129 = load i32, ptr %128, align 4
  %130 = and i32 %129, 1
  %131 = icmp eq i32 %130, 0
  br i1 %131, label %132, label %185

132:                                              ; preds = %126
  %133 = load ptr, ptr %5, align 8
  %134 = getelementptr inbounds %struct._php_stream, ptr %133, i32 0, i32 3
  %135 = getelementptr inbounds %struct._php_stream_filter_chain, ptr %134, i32 0, i32 0
  %136 = load ptr, ptr %135, align 8
  %137 = icmp ne ptr %136, null
  br i1 %137, label %138, label %141

138:                                              ; preds = %132
  %139 = load ptr, ptr %5, align 8
  %140 = call i32 @_php_stream_flush(ptr noundef %139, i32 noundef 0)
  br label %141

141:                                              ; preds = %138, %132
  %142 = load i32, ptr %7, align 4
  switch i32 %142, label %149 [
    i32 1, label %143
  ]

143:                                              ; preds = %141
  %144 = load ptr, ptr %5, align 8
  %145 = getelementptr inbounds %struct._php_stream, ptr %144, i32 0, i32 14
  %146 = load i64, ptr %145, align 8
  %147 = load i64, ptr %6, align 8
  %148 = add nsw i64 %146, %147
  store i64 %148, ptr %6, align 8
  store i32 0, ptr %7, align 4
  br label %149

149:                                              ; preds = %143, %141
  %150 = load ptr, ptr %5, align 8
  %151 = getelementptr inbounds %struct._php_stream, ptr %150, i32 0, i32 0
  %152 = load ptr, ptr %151, align 8
  %153 = getelementptr inbounds %struct._php_stream_ops, ptr %152, i32 0, i32 5
  %154 = load ptr, ptr %153, align 8
  %155 = load ptr, ptr %5, align 8
  %156 = load i64, ptr %6, align 8
  %157 = load i32, ptr %7, align 4
  %158 = load ptr, ptr %5, align 8
  %159 = getelementptr inbounds %struct._php_stream, ptr %158, i32 0, i32 14
  %160 = call i32 %154(ptr noundef %155, i64 noundef %156, i32 noundef %157, ptr noundef %159)
  store i32 %160, ptr %8, align 4
  %161 = load ptr, ptr %5, align 8
  %162 = getelementptr inbounds %struct._php_stream, ptr %161, i32 0, i32 9
  %163 = load i32, ptr %162, align 4
  %164 = and i32 %163, 1
  %165 = icmp eq i32 %164, 0
  br i1 %165, label %169, label %166

166:                                              ; preds = %149
  %167 = load i32, ptr %8, align 4
  %168 = icmp eq i32 %167, 0
  br i1 %168, label %169, label %184

169:                                              ; preds = %166, %149
  %170 = load i32, ptr %8, align 4
  %171 = icmp eq i32 %170, 0
  br i1 %171, label %172, label %178

172:                                              ; preds = %169
  %173 = load ptr, ptr %5, align 8
  %174 = getelementptr inbounds %struct._php_stream, ptr %173, i32 0, i32 7
  %175 = load i16, ptr %174, align 8
  %176 = and i16 %175, -9
  %177 = or i16 %176, 0
  store i16 %177, ptr %174, align 8
  br label %178

178:                                              ; preds = %172, %169
  %179 = load ptr, ptr %5, align 8
  %180 = getelementptr inbounds %struct._php_stream, ptr %179, i32 0, i32 18
  store i64 0, ptr %180, align 8
  %181 = load ptr, ptr %5, align 8
  %182 = getelementptr inbounds %struct._php_stream, ptr %181, i32 0, i32 17
  store i64 0, ptr %182, align 8
  %183 = load i32, ptr %8, align 4
  store i32 %183, ptr %4, align 4
  br label %219

184:                                              ; preds = %166
  br label %185

185:                                              ; preds = %184, %126, %119
  %186 = load i32, ptr %7, align 4
  %187 = icmp eq i32 %186, 1
  br i1 %187, label %188, label %218

188:                                              ; preds = %185
  %189 = load i64, ptr %6, align 8
  %190 = icmp sge i64 %189, 0
  br i1 %190, label %191, label %218

191:                                              ; preds = %188
  br label %192

192:                                              ; preds = %208, %191
  %193 = load i64, ptr %6, align 8
  %194 = icmp sgt i64 %193, 0
  br i1 %194, label %195, label %212

195:                                              ; preds = %192
  %196 = load ptr, ptr %5, align 8
  %197 = getelementptr inbounds [1024 x i8], ptr %9, i64 0, i64 0
  %198 = load i64, ptr %6, align 8
  %199 = icmp ult i64 %198, 1024
  br i1 %199, label %200, label %202

200:                                              ; preds = %195
  %201 = load i64, ptr %6, align 8
  br label %203

202:                                              ; preds = %195
  br label %203

203:                                              ; preds = %202, %200
  %204 = phi i64 [ %201, %200 ], [ 1024, %202 ]
  %205 = call i64 @_php_stream_read(ptr noundef %196, ptr noundef %197, i64 noundef %204)
  store i64 %205, ptr %10, align 8
  %206 = icmp sle i64 %205, 0
  br i1 %206, label %207, label %208

207:                                              ; preds = %203
  store i32 -1, ptr %4, align 4
  br label %219

208:                                              ; preds = %203
  %209 = load i64, ptr %10, align 8
  %210 = load i64, ptr %6, align 8
  %211 = sub nsw i64 %210, %209
  store i64 %211, ptr %6, align 8
  br label %192

212:                                              ; preds = %192
  %213 = load ptr, ptr %5, align 8
  %214 = getelementptr inbounds %struct._php_stream, ptr %213, i32 0, i32 7
  %215 = load i16, ptr %214, align 8
  %216 = and i16 %215, -9
  %217 = or i16 %216, 0
  store i16 %217, ptr %214, align 8
  store i32 0, ptr %4, align 4
  br label %219

218:                                              ; preds = %188, %185
  call void (ptr, i32, ptr, ...) @php_error_docref(ptr noundef null, i32 noundef 2, ptr noundef @.str.2)
  store i32 -1, ptr %4, align 4
  br label %219

219:                                              ; preds = %218, %212, %207, %178, %99, %62
  %220 = load i32, ptr %4, align 4
  ret i32 %220
}