; Function Attrs: nounwind uwtable
define i32 @_php_stream_seek(ptr noundef %0, i64 noundef %1, i32 noundef %2) local_unnamed_addr #2 {
  %4 = alloca [1024 x i8], align 16
  %5 = getelementptr inbounds i8, ptr %0, i64 96
  %6 = load i16, ptr %5, align 8
  %7 = and i16 %6, 352
  %or.cond71 = icmp eq i16 %7, 64
  br i1 %or.cond71, label %8, label %15

8:                                                ; preds = %3
  %9 = or disjoint i16 %6, 256
  store i16 %9, ptr %5, align 8
  %10 = getelementptr inbounds i8, ptr %0, i64 128
  %11 = load ptr, ptr %10, align 8
  %12 = tail call i32 @fflush(ptr noundef %11)
  %13 = load i16, ptr %5, align 8
  %14 = and i16 %13, -257
  store i16 %14, ptr %5, align 8
  br label %15

15:                                               ; preds = %8, %3
  %16 = phi i16 [ %14, %8 ], [ %6, %3 ]
  %17 = getelementptr inbounds i8, ptr %0, i64 116
  %18 = load i32, ptr %17, align 4
  %19 = and i32 %18, 2
  %20 = icmp eq i32 %19, 0
  br i1 %20, label %21, label %51

21:                                               ; preds = %15
  switch i32 %2, label %51 [
    i32 1, label %22
    i32 0, label %36
  ]

22:                                               ; preds = %21
  %23 = icmp sgt i64 %1, 0
  br i1 %23, label %24, label %51

24:                                               ; preds = %22
  %25 = getelementptr inbounds i8, ptr %0, i64 184
  %26 = load i64, ptr %25, align 8
  %27 = getelementptr inbounds i8, ptr %0, i64 176
  %28 = load i64, ptr %27, align 8
  %29 = sub nsw i64 %26, %28
  %.not68 = icmp slt i64 %29, %1
  br i1 %.not68, label %51, label %30

30:                                               ; preds = %24
  %31 = add nsw i64 %28, %1
  store i64 %31, ptr %27, align 8
  %32 = getelementptr inbounds i8, ptr %0, i64 152
  %33 = load i64, ptr %32, align 8
  %34 = add nsw i64 %33, %1
  store i64 %34, ptr %32, align 8
  %35 = and i16 %16, -9
  store i16 %35, ptr %5, align 8
  br label %.loopexit

36:                                               ; preds = %21
  %37 = getelementptr inbounds i8, ptr %0, i64 152
  %38 = load i64, ptr %37, align 8
  %39 = icmp slt i64 %38, %1
  br i1 %39, label %40, label %51

40:                                               ; preds = %36
  %41 = getelementptr inbounds i8, ptr %0, i64 184
  %42 = load i64, ptr %41, align 8
  %43 = add nsw i64 %42, %38
  %44 = getelementptr inbounds i8, ptr %0, i64 176
  %45 = load i64, ptr %44, align 8
  %46 = sub i64 %43, %45
  %.not67 = icmp slt i64 %46, %1
  br i1 %.not67, label %51, label %47

47:                                               ; preds = %40
  %48 = sub i64 %1, %38
  %49 = add nsw i64 %48, %45
  store i64 %49, ptr %44, align 8
  store i64 %1, ptr %37, align 8
  %50 = and i16 %16, -9
  store i16 %50, ptr %5, align 8
  br label %.loopexit

51:                                               ; preds = %21, %24, %22, %40, %36, %15
  %52 = load ptr, ptr %0, align 8
  %53 = getelementptr inbounds i8, ptr %52, i64 40
  %54 = load ptr, ptr %53, align 8
  %.not69 = icmp ne ptr %54, null
  %55 = and i32 %18, 1
  %56 = icmp eq i32 %55, 0
  %or.cond76 = and i1 %56, %.not69
  br i1 %or.cond76, label %57, label %89

57:                                               ; preds = %51
  %58 = getelementptr inbounds i8, ptr %0, i64 40
  %59 = load ptr, ptr %58, align 8
  %.not70 = icmp eq ptr %59, null
  br i1 %.not70, label %_php_stream_flush.exit, label %60

60:                                               ; preds = %57
  %61 = tail call fastcc i64 @_php_stream_write_filtered(ptr noundef nonnull %0, ptr noundef null, i64 noundef 0, i32 noundef 1)
  %62 = load i32, ptr %17, align 4
  %63 = and i32 %62, 2147483647
  store i32 %63, ptr %17, align 4
  %64 = load ptr, ptr %0, align 8
  %65 = getelementptr inbounds i8, ptr %64, i64 24
  %66 = load ptr, ptr %65, align 8
  %.not9.i = icmp eq ptr %66, null
  br i1 %.not9.i, label %_php_stream_flush.exit, label %67

67:                                               ; preds = %60
  %68 = tail call i32 %66(ptr noundef nonnull %0) #27
  br label %_php_stream_flush.exit

_php_stream_flush.exit:                           ; preds = %67, %60, %57
  %cond = icmp eq i32 %2, 1
  br i1 %cond, label %69, label %73

69:                                               ; preds = %_php_stream_flush.exit
  %70 = getelementptr inbounds i8, ptr %0, i64 152
  %71 = load i64, ptr %70, align 8
  %72 = add nsw i64 %71, %1
  br label %73

73:                                               ; preds = %_php_stream_flush.exit, %69
  %.060 = phi i32 [ 0, %69 ], [ %2, %_php_stream_flush.exit ]
  %.059 = phi i64 [ %72, %69 ], [ %1, %_php_stream_flush.exit ]
  %74 = load ptr, ptr %0, align 8
  %75 = getelementptr inbounds i8, ptr %74, i64 40
  %76 = load ptr, ptr %75, align 8
  %77 = getelementptr inbounds i8, ptr %0, i64 152
  %78 = tail call i32 %76(ptr noundef nonnull %0, i64 noundef %.059, i32 noundef %.060, ptr noundef nonnull %77) #27
  %79 = load i32, ptr %17, align 4
  %80 = and i32 %79, 1
  %81 = icmp eq i32 %80, 0
  %82 = icmp eq i32 %78, 0
  %or.cond = select i1 %81, i1 true, i1 %82
  br i1 %or.cond, label %83, label %.thread

83:                                               ; preds = %73
  br i1 %82, label %84, label %87

84:                                               ; preds = %83
  %85 = load i16, ptr %5, align 8
  %86 = and i16 %85, -9
  store i16 %86, ptr %5, align 8
  br label %87

87:                                               ; preds = %84, %83
  %88 = getelementptr inbounds i8, ptr %0, i64 176
  tail call void @llvm.memset.p0.i64(ptr noundef nonnull align 8 dereferenceable(16) %88, i8 0, i64 16, i1 false)
  br label %.loopexit

89:                                               ; preds = %51
  %90 = icmp eq i32 %2, 1
  %91 = icmp sgt i64 %1, -1
  %or.cond3 = and i1 %91, %90
  br i1 %or.cond3, label %.preheader, label %.thread

.preheader:                                       ; preds = %89
  %.not = icmp eq i64 %1, 0
  br i1 %.not, label %._crit_edge, label %.lr.ph

92:                                               ; preds = %.lr.ph
  %93 = sub nsw i64 %.278, %96
  %94 = icmp sgt i64 %93, 0
  br i1 %94, label %.lr.ph, label %._crit_edge.loopexit

.lr.ph:                                           ; preds = %.preheader, %92
  %.278 = phi i64 [ %93, %92 ], [ %1, %.preheader ]
  %95 = call i64 @llvm.umin.i64(i64 %.278, i64 1024)
  %96 = call i64 @_php_stream_read(ptr noundef nonnull %0, ptr noundef nonnull %4, i64 noundef %95)
  %97 = icmp slt i64 %96, 1
  br i1 %97, label %.loopexit, label %92

._crit_edge.loopexit:                             ; preds = %92
  %.pre = load i16, ptr %5, align 8
  br label %._crit_edge

._crit_edge:                                      ; preds = %._crit_edge.loopexit, %.preheader
  %98 = phi i16 [ %.pre, %._crit_edge.loopexit ], [ %16, %.preheader ]
  %99 = and i16 %98, -9
  store i16 %99, ptr %5, align 8
  br label %.loopexit

.thread:                                          ; preds = %73, %89
  tail call void (ptr, i32, ptr, ...) @php_error_docref(ptr noundef null, i32 noundef 2, ptr noundef nonnull @.str.2) #27
  br label %.loopexit

.loopexit:                                        ; preds = %.lr.ph, %.thread, %._crit_edge, %87, %47, %30
  %.0 = phi i32 [ %78, %87 ], [ 0, %._crit_edge ], [ -1, %.thread ], [ 0, %47 ], [ 0, %30 ], [ -1, %.lr.ph ]
  ret i32 %.0
}